target datalayout = "e-m:e-p270:32:32-p271:32:32-p272:64:64-i64:64-i128:128-f80:128-n8:16:32:64-S128"
target triple = "x86_64-pc-linux-gnu"

%struct.Curl_cftype = type { ptr, i32, i32, ptr, ptr, ptr, ptr, ptr, ptr, ptr, ptr, ptr, ptr, ptr, ptr, ptr }
%struct.Curl_cfilter = type { ptr, ptr, ptr, ptr, i32, i8 }
%struct.cf_call_data = type { ptr }
%struct.cf_h2_proxy_ctx = type { ptr, %struct.cf_call_data, %struct.bufq, %struct.bufq, %struct.tunnel_stream, i32, i32, i8 }
%struct.bufq = type { ptr, ptr, ptr, ptr, i64, i64, i64, i32 }
%struct.tunnel_stream = type { ptr, %struct.bufq, %struct.bufq, ptr, i32, i32, i32, i8 }
%struct.Curl_easy = type { i32, i64, i64, ptr, %struct.Curl_llist_node, %struct.Curl_llist_node, i32, i32, %struct.Curl_message, %struct.easy_pollset, %struct.Names, ptr, ptr, ptr, %struct.SingleRequest, %struct.UserDefined, ptr, ptr, %struct.Progress, %struct.UrlState, ptr, %struct.PureInfo, %struct.curl_tlssessioninfo }
%struct.Curl_llist_node = type { ptr, ptr, ptr, ptr }
%struct.Curl_message = type { %struct.Curl_llist_node, %struct.CURLMsg }
%struct.CURLMsg = type { i32, ptr, %union.anon }
%union.anon = type { ptr }
%struct.easy_pollset = type { [5 x i32], i32, [5 x i8] }
%struct.Names = type { ptr, i32 }
%struct.SingleRequest = type <{ i64, i64, i64, i64, %struct.curltime, i32, i32, i32, i32, i64, i32, i32, i32, i32, ptr, ptr, %struct.bufq, i64, i64, ptr, ptr, %union.anon.0, ptr, i8, i32, [3 x i8] }>
%struct.curltime = type { i64, i32 }
%union.anon.0 = type { ptr }
%struct.UserDefined = type <{ ptr, ptr, ptr, ptr, ptr, ptr, i16, [6 x i8], i64, i64, i64, ptr, ptr, i64, i16, i16, [4 x i8], ptr, ptr, ptr, ptr, ptr, ptr, ptr, ptr, ptr, ptr, ptr, ptr, ptr, ptr, ptr, ptr, ptr, ptr, ptr, ptr, ptr, ptr, ptr, i32, i32, i32, i32, i32, [4 x i8], i64, i64, i64, i64, i64, i64, i64, i64, ptr, ptr, %struct.curl_mimepart, ptr, ptr, i64, i8, i8, i8, [5 x i8], %struct.ssl_config_data, %struct.ssl_config_data, ptr, i16, i8, i8, [4 x i8], %struct.ssl_general_config, i32, i32, i32, [4 x i8], ptr, ptr, i8, [7 x i8], i64, i8, i8, i8, i8, i32, ptr, ptr, ptr, i8, i8, [2 x i8], i32, [63 x ptr], [8 x ptr], i32, i32, i32, [4 x i8], ptr, ptr, ptr, ptr, ptr, i8, [3 x i8], i32, i32, i32, i64, %struct.Curl_data_priority, ptr, ptr, i64, ptr, i64, ptr, ptr, ptr, i8, [3 x i8], i32, i8, i8, i64, [6 x i8] }>
%struct.curl_mimepart = type { ptr, ptr, i32, i32, ptr, ptr, ptr, ptr, ptr, ptr, ptr, ptr, ptr, ptr, ptr, i64, %struct.mime_state, ptr, %struct.mime_encoder_state, i64 }
%struct.mime_state = type { i32, ptr, i64 }
%struct.mime_encoder_state = type { i64, i64, i64, [256 x i8] }
%struct.ssl_config_data = type { %struct.ssl_primary_config, i64, ptr, ptr, ptr, ptr, ptr, ptr, ptr, i16 }
%struct.ssl_primary_config = type { ptr, ptr, ptr, ptr, ptr, ptr, ptr, ptr, ptr, ptr, ptr, ptr, i8, i32, i8, i8 }
%struct.ssl_general_config = type { i64, i32 }
%struct.Curl_data_priority = type { ptr, ptr, i32, i8 }
%struct.Progress = type { i64, %struct.pgrs_dir, %struct.pgrs_dir, i64, i64, i32, i32, i64, i64, i64, i64, i64, i64, i64, i64, i64, %struct.curltime, %struct.curltime, %struct.curltime, %struct.curltime, [6 x i64], [6 x %struct.curltime], i32, i8 }
%struct.pgrs_dir = type { i64, i64, i64, %struct.pgrs_measure }
%struct.pgrs_measure = type { %struct.curltime, i64 }
%struct.UrlState = type { %struct.curltime, i64, i64, %struct.dynbuf, ptr, i64, ptr, i32, i32, i32, ptr, i64, i32, i64, i32, ptr, %struct.digestdata, %struct.digestdata, %struct.auth, %struct.auth, %struct.Curl_async, ptr, %struct.curltime, %struct.Curl_tree, %struct.Curl_llist, [15 x %struct.time_node], ptr, ptr, i64, i64, %struct.Curl_data_priority, ptr, ptr, ptr, %struct.urlpieces, ptr, ptr, ptr, ptr, ptr, i64, %struct.dynbuf, %struct.Curl_llist, [2 x %struct.curl_header], ptr, i32, ptr, ptr, %struct.store_netrc, %struct.dynamically_allocated_data, i8, i8, i8, i8, i32 }
%struct.digestdata = type { ptr, ptr, ptr, ptr, ptr, ptr, i32, i8, i8 }
%struct.auth = type { i64, i64, i64, i8 }
%struct.Curl_async = type { ptr, ptr, ptr, ptr, i32, i32, i8 }
%struct.Curl_tree = type { ptr, ptr, ptr, ptr, %struct.curltime, ptr }
%struct.time_node = type { %struct.Curl_llist_node, %struct.curltime, i32 }
%struct.urlpieces = type { ptr, ptr, ptr, ptr, ptr, ptr, ptr, ptr }
%struct.dynbuf = type { ptr, i64, i64, i64 }
%struct.Curl_llist = type { ptr, ptr, ptr, i64 }
%struct.curl_header = type { ptr, ptr, i64, i64, i32, ptr }
%struct.store_netrc = type { %struct.dynbuf, ptr, i8 }
%struct.dynamically_allocated_data = type { ptr, ptr, ptr, ptr, ptr, ptr, ptr, ptr, ptr, ptr, ptr, ptr, ptr }
%struct.PureInfo = type { i32, i32, i32, i64, i64, i64, i64, i64, ptr, ptr, i64, i32, %struct.ip_quadruple, i32, ptr, i32, %struct.curl_certinfo, i32, i8 }
%struct.ip_quadruple = type { [46 x i8], [46 x i8], i32, i32 }
%struct.curl_certinfo = type { i32, ptr }
%struct.curl_tlssessioninfo = type { i32, ptr }
%struct.curl_trc_feat = type { ptr, i32 }

@.str.75 = private unnamed_addr constant [12 x i8] c"needs flush\00", align 1

; Function Attrs: nounwind uwtable
define internal i32 @cf_h2_proxy_query(ptr noundef %0, ptr noundef %1, i32 noundef %2, ptr noundef %3, ptr noundef %4) #0 {
  %6 = alloca i32, align 4
  %7 = alloca ptr, align 8
  %8 = alloca ptr, align 8
  %9 = alloca i32, align 4
  %10 = alloca ptr, align 8
  %11 = alloca ptr, align 8
  %12 = alloca ptr, align 8
  %13 = alloca i32, align 4
  store ptr %0, ptr %7, align 8, !tbaa !4
  store ptr %1, ptr %8, align 8, !tbaa !9
  store i32 %2, ptr %9, align 4, !tbaa !22
  store ptr %3, ptr %10, align 8, !tbaa !118
  store ptr %4, ptr %11, align 8, !tbaa !116
  call void @llvm.lifetime.start.p0(i64 8, ptr %12) #6
  %14 = load ptr, ptr %7, align 8, !tbaa !4
  %15 = getelementptr inbounds nuw %struct.Curl_cfilter, ptr %14, i32 0, i32 2
  %16 = load ptr, ptr %15, align 8, !tbaa !11
  store ptr %16, ptr %12, align 8, !tbaa !16
  %17 = load i32, ptr %9, align 4, !tbaa !22
  switch i32 %17, label %72 [
    i32 7, label %18
  ]

18:                                               ; preds = %5
  %19 = load ptr, ptr %12, align 8, !tbaa !16
  %20 = getelementptr inbounds nuw %struct.cf_h2_proxy_ctx, ptr %19, i32 0, i32 3
  %21 = call zeroext i1 @Curl_bufq_is_empty(ptr noundef %20)
  br i1 %21, label %22, label %27

22:                                               ; preds = %18
  %23 = load ptr, ptr %12, align 8, !tbaa !16
  %24 = getelementptr inbounds nuw %struct.cf_h2_proxy_ctx, ptr %23, i32 0, i32 4
  %25 = getelementptr inbounds nuw %struct.tunnel_stream, ptr %24, i32 0, i32 2
  %26 = call zeroext i1 @Curl_bufq_is_empty(ptr noundef %25)
  br i1 %26, label %71, label %27

27:                                               ; preds = %22, %18
  br label %28

28:                                               ; preds = %27
  %29 = load ptr, ptr %8, align 8, !tbaa !9
  %30 = icmp ne ptr %29, null
  br i1 %30, label %31, label %67

31:                                               ; preds = %28
  %32 = load ptr, ptr %8, align 8, !tbaa !9
  %33 = getelementptr inbounds nuw %struct.Curl_easy, ptr %32, i32 0, i32 15
  %34 = getelementptr inbounds nuw %struct.UserDefined, ptr %33, i32 0, i32 124
  %35 = load i64, ptr %34, align 2
  %36 = lshr i64 %35, 27
  %37 = and i64 %36, 1
  %38 = trunc i64 %37 to i32
  %39 = icmp ne i32 %38, 0
  br i1 %39, label %40, label %67

40:                                               ; preds = %31
  %41 = load ptr, ptr %8, align 8, !tbaa !9
  %42 = getelementptr inbounds nuw %struct.Curl_easy, ptr %41, i32 0, i32 19
  %43 = getelementptr inbounds nuw %struct.UrlState, ptr %42, i32 0, i32 47
  %44 = load ptr, ptr %43, align 8, !tbaa !49
  %45 = icmp ne ptr %44, null
  br i1 %45, label %46, label %54

46:                                               ; preds = %40
  %47 = load ptr, ptr %8, align 8, !tbaa !9
  %48 = getelementptr inbounds nuw %struct.Curl_easy, ptr %47, i32 0, i32 19
  %49 = getelementptr inbounds nuw %struct.UrlState, ptr %48, i32 0, i32 47
  %50 = load ptr, ptr %49, align 8, !tbaa !49
  %51 = getelementptr inbounds nuw %struct.curl_trc_feat, ptr %50, i32 0, i32 1
  %52 = load i32, ptr %51, align 8, !tbaa !111
  %53 = icmp sge i32 %52, 1
  br i1 %53, label %54, label %67

54:                                               ; preds = %46, %40
  %55 = load ptr, ptr %7, align 8, !tbaa !4
  %56 = icmp ne ptr %55, null
  br i1 %56, label %57, label %67

57:                                               ; preds = %54
  %58 = load ptr, ptr %7, align 8, !tbaa !4
  %59 = getelementptr inbounds nuw %struct.Curl_cfilter, ptr %58, i32 0, i32 0
  %60 = load ptr, ptr %59, align 8, !tbaa !43
  %61 = getelementptr inbounds nuw %struct.Curl_cftype, ptr %60, i32 0, i32 2
  %62 = load i32, ptr %61, align 4, !tbaa !113
  %63 = icmp sge i32 %62, 1
  br i1 %63, label %64, label %67

64:                                               ; preds = %57
  %65 = load ptr, ptr %8, align 8, !tbaa !9
  %66 = load ptr, ptr %7, align 8, !tbaa !4
  call void (ptr, ptr, ptr, ...) @Curl_trc_cf_infof(ptr noundef %65, ptr noundef %66, ptr noundef @.str.75)
  br label %67

67:                                               ; preds = %64, %57, %54, %46, %31, %28
  br label %68

68:                                               ; preds = %67
  br label %69

69:                                               ; preds = %68
  %70 = load ptr, ptr %10, align 8, !tbaa !118
  store i32 1, ptr %70, align 4, !tbaa !22
  store i32 0, ptr %6, align 4
  store i32 1, ptr %13, align 4
  br label %97

71:                                               ; preds = %22
  br label %73

72:                                               ; preds = %5
  br label %73

73:                                               ; preds = %72, %71
  %74 = load ptr, ptr %7, align 8, !tbaa !4
  %75 = getelementptr inbounds nuw %struct.Curl_cfilter, ptr %74, i32 0, i32 1
  %76 = load ptr, ptr %75, align 8, !tbaa !25
  %77 = icmp ne ptr %76, null
  br i1 %77, label %78, label %94

78:                                               ; preds = %73
  %79 = load ptr, ptr %7, align 8, !tbaa !4
  %80 = getelementptr inbounds nuw %struct.Curl_cfilter, ptr %79, i32 0, i32 1
  %81 = load ptr, ptr %80, align 8, !tbaa !25
  %82 = getelementptr inbounds nuw %struct.Curl_cfilter, ptr %81, i32 0, i32 0
  %83 = load ptr, ptr %82, align 8, !tbaa !43
  %84 = getelementptr inbounds nuw %struct.Curl_cftype, ptr %83, i32 0, i32 15
  %85 = load ptr, ptr %84, align 8, !tbaa !120
  %86 = load ptr, ptr %7, align 8, !tbaa !4
  %87 = getelementptr inbounds nuw %struct.Curl_cfilter, ptr %86, i32 0, i32 1
  %88 = load ptr, ptr %87, align 8, !tbaa !25
  %89 = load ptr, ptr %8, align 8, !tbaa !9
  %90 = load i32, ptr %9, align 4, !tbaa !22
  %91 = load ptr, ptr %10, align 8, !tbaa !118
  %92 = load ptr, ptr %11, align 8, !tbaa !116
  %93 = call i32 %85(ptr noundef %88, ptr noundef %89, i32 noundef %90, ptr noundef %91, ptr noundef %92)
  br label %95

94:                                               ; preds = %73
  br label %95

95:                                               ; preds = %94, %78
  %96 = phi i32 [ %93, %78 ], [ 48, %94 ]
  store i32 %96, ptr %6, align 4
  store i32 1, ptr %13, align 4
  br label %97

97:                                               ; preds = %95, %69
  call void @llvm.lifetime.end.p0(i64 8, ptr %12) #6
  %98 = load i32, ptr %6, align 4
  ret i32 %98
}