; Function Attrs: nounwind uwtable
define internal i32 @cf_h2_proxy_query(ptr noundef %0, ptr noundef %1, i32 noundef %2, ptr noundef %3, ptr noundef %4) #0 {
  %6 = getelementptr inbounds nuw i8, ptr %0, i64 16
  %7 = load ptr, ptr %6, align 8, !tbaa !4
  %cond = icmp eq i32 %2, 7
  br i1 %cond, label %8, label %33

8:                                                ; preds = %5
  %9 = getelementptr inbounds nuw i8, ptr %7, i64 80
  %10 = tail call zeroext i1 @Curl_bufq_is_empty(ptr noundef nonnull %9) #7
  br i1 %10, label %11, label %14

11:                                               ; preds = %8
  %12 = getelementptr inbounds nuw i8, ptr %7, i64 216
  %13 = tail call zeroext i1 @Curl_bufq_is_empty(ptr noundef nonnull %12) #7
  br i1 %13, label %33, label %14

14:                                               ; preds = %8, %11
  %.not = icmp eq ptr %1, null
  br i1 %.not, label %32, label %15

15:                                               ; preds = %14
  %16 = getelementptr inbounds nuw i8, ptr %1, i64 2562
  %17 = load i64, ptr %16, align 2
  %18 = and i64 %17, 134217728
  %.not24 = icmp eq i64 %18, 0
  br i1 %.not24, label %32, label %19

19:                                               ; preds = %15
  %20 = getelementptr inbounds nuw i8, ptr %1, i64 4712
  %21 = load ptr, ptr %20, align 8, !tbaa !108
  %.not25 = icmp eq ptr %21, null
  br i1 %.not25, label %26, label %22

22:                                               ; preds = %19
  %23 = getelementptr inbounds nuw i8, ptr %21, i64 8
  %24 = load i32, ptr %23, align 8, !tbaa !109
  %25 = icmp sgt i32 %24, 0
  br i1 %25, label %26, label %32

26:                                               ; preds = %19, %22
  %27 = load ptr, ptr %0, align 8, !tbaa !111
  %28 = getelementptr inbounds nuw i8, ptr %27, i64 12
  %29 = load i32, ptr %28, align 4, !tbaa !112
  %30 = icmp sgt i32 %29, 0
  br i1 %30, label %31, label %32

31:                                               ; preds = %26
  tail call void (ptr, ptr, ptr, ...) @Curl_trc_cf_infof(ptr noundef nonnull %1, ptr noundef nonnull %0, ptr noundef nonnull @.str.75) #7
  br label %32

32:                                               ; preds = %31, %26, %22, %15, %14
  store i32 1, ptr %3, align 4, !tbaa !40
  br label %41

33:                                               ; preds = %5, %11
  %34 = getelementptr inbounds nuw i8, ptr %0, i64 8
  %35 = load ptr, ptr %34, align 8, !tbaa !31
  %.not26 = icmp eq ptr %35, null
  br i1 %.not26, label %41, label %36

36:                                               ; preds = %33
  %37 = load ptr, ptr %35, align 8, !tbaa !111
  %38 = getelementptr inbounds nuw i8, ptr %37, i64 112
  %39 = load ptr, ptr %38, align 8, !tbaa !141
  %40 = tail call i32 %39(ptr noundef nonnull %35, ptr noundef %1, i32 noundef %2, ptr noundef %3, ptr noundef %4) #7
  br label %41

41:                                               ; preds = %36, %33, %32
  %.0 = phi i32 [ 0, %32 ], [ %40, %36 ], [ 48, %33 ]
  ret i32 %.0
}